; Function Attrs: nounwind uwtable
define dso_local range(i64 0, 2) i64 @enum_gt(ptr noundef readonly captures(none) %0) local_unnamed_addr #0 {
  %2 = getelementptr inbounds nuw i8, ptr %0, i64 32
  %3 = load i64, ptr %2, align 8
  %4 = trunc i64 %3 to i32
  %5 = getelementptr inbounds nuw i8, ptr %0, i64 48
  %6 = load i64, ptr %5, align 8
  %7 = trunc i64 %6 to i32
  %8 = tail call fastcc i32 @enum_cmp_internal(i32 noundef %4, i32 noundef %7, ptr noundef %0)
  %9 = icmp sgt i32 %8, 0
  %10 = zext i1 %9 to i64
  ret i64 %10
}